target datalayout = "e-m:e-p270:32:32-p271:32:32-p272:64:64-i64:64-i128:128-f80:128-n8:16:32:64-S128"
target triple = "x86_64-pc-linux-gnu"

; Function Attrs: mustprogress nounwind uwtable
define internal void @_ZN2cv4gapi12_GLOBAL__N_120fillBorderReflectRowIfEEvPhiii(ptr noundef %0, i32 noundef %1, i32 noundef %2, i32 noundef %3) #8 {
  %5 = alloca ptr, align 8
  %6 = alloca i32, align 4
  %7 = alloca i32, align 4
  %8 = alloca i32, align 4
  %9 = alloca ptr, align 8
  %10 = alloca ptr, align 8
  %11 = alloca i32, align 4
  %12 = alloca i32, align 4
  %13 = alloca i32, align 4
  store ptr %0, ptr %5, align 8, !tbaa !29
  store i32 %1, ptr %6, align 4, !tbaa !20
  store i32 %2, ptr %7, align 4, !tbaa !20
  store i32 %3, ptr %8, align 4, !tbaa !20
  call void @llvm.lifetime.start.p0(i64 8, ptr %9) #3
  %14 = load ptr, ptr %5, align 8, !tbaa !29
  store ptr %14, ptr %9, align 8, !tbaa !233
  call void @llvm.lifetime.start.p0(i64 8, ptr %10) #3
  %15 = load ptr, ptr %9, align 8, !tbaa !233
  %16 = load i32, ptr %6, align 4, !tbaa !20
  %17 = load i32, ptr %8, align 4, !tbaa !20
  %18 = sub nsw i32 %16, %17
  %19 = load i32, ptr %7, align 4, !tbaa !20
  %20 = mul nsw i32 %18, %19
  %21 = sext i32 %20 to i64
  %22 = getelementptr inbounds float, ptr %15, i64 %21
  store ptr %22, ptr %10, align 8, !tbaa !233
  call void @llvm.lifetime.start.p0(i64 4, ptr %11) #3
  store i32 0, ptr %11, align 4, !tbaa !20
  br label %23

23:                                               ; preds = %78, %4
  %24 = load i32, ptr %11, align 4, !tbaa !20
  %25 = load i32, ptr %8, align 4, !tbaa !20
  %26 = icmp slt i32 %24, %25
  br i1 %26, label %28, label %27

27:                                               ; preds = %23
  store i32 2, ptr %12, align 4
  call void @llvm.lifetime.end.p0(i64 4, ptr %11) #3
  br label %81

28:                                               ; preds = %23
  call void @llvm.lifetime.start.p0(i64 4, ptr %13) #3
  store i32 0, ptr %13, align 4, !tbaa !20
  br label %29

29:                                               ; preds = %74, %28
  %30 = load i32, ptr %13, align 4, !tbaa !20
  %31 = load i32, ptr %7, align 4, !tbaa !20
  %32 = icmp slt i32 %30, %31
  br i1 %32, label %34, label %33

33:                                               ; preds = %29
  store i32 5, ptr %12, align 4
  call void @llvm.lifetime.end.p0(i64 4, ptr %13) #3
  br label %77

34:                                               ; preds = %29
  %35 = load ptr, ptr %9, align 8, !tbaa !233
  %36 = load i32, ptr %8, align 4, !tbaa !20
  %37 = mul nsw i32 2, %36
  %38 = load i32, ptr %11, align 4, !tbaa !20
  %39 = sub nsw i32 %37, %38
  %40 = load i32, ptr %7, align 4, !tbaa !20
  %41 = mul nsw i32 %39, %40
  %42 = load i32, ptr %13, align 4, !tbaa !20
  %43 = add nsw i32 %41, %42
  %44 = sext i32 %43 to i64
  %45 = getelementptr inbounds float, ptr %35, i64 %44
  %46 = load float, ptr %45, align 4, !tbaa !235
  %47 = load ptr, ptr %9, align 8, !tbaa !233
  %48 = load i32, ptr %11, align 4, !tbaa !20
  %49 = load i32, ptr %7, align 4, !tbaa !20
  %50 = mul nsw i32 %48, %49
  %51 = load i32, ptr %13, align 4, !tbaa !20
  %52 = add nsw i32 %50, %51
  %53 = sext i32 %52 to i64
  %54 = getelementptr inbounds float, ptr %47, i64 %53
  store float %46, ptr %54, align 4, !tbaa !235
  %55 = load ptr, ptr %10, align 8, !tbaa !233
  %56 = load i32, ptr %11, align 4, !tbaa !20
  %57 = sub nsw i32 0, %56
  %58 = sub nsw i32 %57, 2
  %59 = load i32, ptr %7, align 4, !tbaa !20
  %60 = mul nsw i32 %58, %59
  %61 = load i32, ptr %13, align 4, !tbaa !20
  %62 = add nsw i32 %60, %61
  %63 = sext i32 %62 to i64
  %64 = getelementptr inbounds float, ptr %55, i64 %63
  %65 = load float, ptr %64, align 4, !tbaa !235
  %66 = load ptr, ptr %10, align 8, !tbaa !233
  %67 = load i32, ptr %11, align 4, !tbaa !20
  %68 = load i32, ptr %7, align 4, !tbaa !20
  %69 = mul nsw i32 %67, %68
  %70 = load i32, ptr %13, align 4, !tbaa !20
  %71 = add nsw i32 %69, %70
  %72 = sext i32 %71 to i64
  %73 = getelementptr inbounds float, ptr %66, i64 %72
  store float %65, ptr %73, align 4, !tbaa !235
  br label %74

74:                                               ; preds = %34
  %75 = load i32, ptr %13, align 4, !tbaa !20
  %76 = add nsw i32 %75, 1
  store i32 %76, ptr %13, align 4, !tbaa !20
  br label %29, !llvm.loop !502

77:                                               ; preds = %33
  br label %78

78:                                               ; preds = %77
  %79 = load i32, ptr %11, align 4, !tbaa !20
  %80 = add nsw i32 %79, 1
  store i32 %80, ptr %11, align 4, !tbaa !20
  br label %23, !llvm.loop !503

81:                                               ; preds = %27
  call void @llvm.lifetime.end.p0(i64 8, ptr %10) #3
  call void @llvm.lifetime.end.p0(i64 8, ptr %9) #3
  ret void
}